; Function Attrs: nounwind uwtable
define ptr @glfwGetGLXContext(ptr noundef readonly captures(none) %0) local_unnamed_addr #0 {
  %2 = load i32, ptr @_glfw, align 8, !tbaa !207
  %.not = icmp eq i32 %2, 0
  br i1 %.not, label %3, label %4

3:                                                ; preds = %1
  tail call void (i32, ptr, ...) @_glfwInputError(i32 noundef 65537, ptr noundef null) #4
  br label %14

4:                                                ; preds = %1
  %5 = load i32, ptr getelementptr inbounds nuw (i8, ptr @_glfw, i64 40), align 8, !tbaa !208
  %.not4 = icmp eq i32 %5, 393220
  br i1 %.not4, label %7, label %6

6:                                                ; preds = %4
  tail call void (i32, ptr, ...) @_glfwInputError(i32 noundef 65550, ptr noundef nonnull @.str.46) #4
  br label %14

7:                                                ; preds = %4
  %8 = getelementptr inbounds nuw i8, ptr %0, i64 532
  %9 = load i32, ptr %8, align 4, !tbaa !209
  %.not5 = icmp eq i32 %9, 221185
  br i1 %.not5, label %11, label %10

10:                                               ; preds = %7
  tail call void (i32, ptr, ...) @_glfwInputError(i32 noundef 65546, ptr noundef null) #4
  br label %14

11:                                               ; preds = %7
  %12 = getelementptr inbounds nuw i8, ptr %0, i64 704
  %13 = load ptr, ptr %12, align 8, !tbaa !131
  br label %14

14:                                               ; preds = %11, %10, %6, %3
  %.0 = phi ptr [ null, %6 ], [ null, %10 ], [ %13, %11 ], [ null, %3 ]
  ret ptr %.0
}